target datalayout = "e-m:e-p270:32:32-p271:32:32-p272:64:64-i64:64-i128:128-f80:128-n8:16:32:64-S128"
target triple = "x86_64-pc-linux-gnu"

@mpd_mallocfunc = hidden global ptr @malloc, align 8

; Function Attrs: inlinehint nounwind uwtable
define internal void @_mpd_mul_words(ptr noundef %0, ptr noundef %1, i64 noundef %2, i64 noundef %3) #6 {
  %5 = alloca ptr, align 8
  %6 = alloca ptr, align 8
  %7 = alloca i64, align 8
  %8 = alloca i64, align 8
  %9 = alloca i128, align 16
  store ptr %0, ptr %5, align 8, !tbaa !9
  store ptr %1, ptr %6, align 8, !tbaa !9
  store i64 %2, ptr %7, align 8, !tbaa !3
  store i64 %3, ptr %8, align 8, !tbaa !3
  call void @llvm.lifetime.start.p0(i64 16, ptr %9) #10
  %10 = load i64, ptr %7, align 8, !tbaa !3
  %11 = zext i64 %10 to i128
  %12 = load i64, ptr %8, align 8, !tbaa !3
  %13 = zext i64 %12 to i128
  %14 = mul i128 %11, %13
  store i128 %14, ptr %9, align 16, !tbaa !29
  %15 = load i128, ptr %9, align 16, !tbaa !29
  %16 = lshr i128 %15, 64
  %17 = trunc i128 %16 to i64
  %18 = load ptr, ptr %5, align 8, !tbaa !9
  store i64 %17, ptr %18, align 8, !tbaa !3
  %19 = load i128, ptr %9, align 16, !tbaa !29
  %20 = trunc i128 %19 to i64
  %21 = load ptr, ptr %6, align 8, !tbaa !9
  store i64 %20, ptr %21, align 8, !tbaa !3
  call void @llvm.lifetime.end.p0(i64 16, ptr %9) #10
  ret void
}

; Function Attrs: inlinehint nounwind uwtable
define internal i64 @add_size_t_overflow(i64 noundef %0, i64 noundef %1, ptr noundef %2) #6 {
  %4 = alloca i64, align 8
  %5 = alloca i64, align 8
  %6 = alloca ptr, align 8
  %7 = alloca i64, align 8
  store i64 %0, ptr %4, align 8, !tbaa !3
  store i64 %1, ptr %5, align 8, !tbaa !3
  store ptr %2, ptr %6, align 8, !tbaa !9
  call void @llvm.lifetime.start.p0(i64 8, ptr %7) #10
  %8 = load ptr, ptr %6, align 8, !tbaa !9
  store i64 0, ptr %8, align 8, !tbaa !3
  %9 = load i64, ptr %4, align 8, !tbaa !3
  %10 = load i64, ptr %5, align 8, !tbaa !3
  %11 = add i64 %9, %10
  store i64 %11, ptr %7, align 8, !tbaa !3
  %12 = load i64, ptr %7, align 8, !tbaa !3
  %13 = load i64, ptr %4, align 8, !tbaa !3
  %14 = icmp ult i64 %12, %13
  br i1 %14, label %15, label %17

15:                                               ; preds = %3
  %16 = load ptr, ptr %6, align 8, !tbaa !9
  store i64 1, ptr %16, align 8, !tbaa !3
  br label %17

17:                                               ; preds = %15, %3
  %18 = load i64, ptr %7, align 8, !tbaa !3
  call void @llvm.lifetime.end.p0(i64 8, ptr %7) #10
  ret i64 %18
}

; Function Attrs: inlinehint nounwind uwtable
define internal i64 @mul_size_t_overflow(i64 noundef %0, i64 noundef %1, ptr noundef %2) #6 {
  %4 = alloca i64, align 8
  %5 = alloca i64, align 8
  %6 = alloca ptr, align 8
  %7 = alloca i64, align 8
  %8 = alloca i64, align 8
  store i64 %0, ptr %4, align 8, !tbaa !3
  store i64 %1, ptr %5, align 8, !tbaa !3
  store ptr %2, ptr %6, align 8, !tbaa !9
  call void @llvm.lifetime.start.p0(i64 8, ptr %7) #10
  call void @llvm.lifetime.start.p0(i64 8, ptr %8) #10
  %9 = load i64, ptr %4, align 8, !tbaa !3
  %10 = load i64, ptr %5, align 8, !tbaa !3
  call void @_mpd_mul_words(ptr noundef %7, ptr noundef %8, i64 noundef %9, i64 noundef %10)
  %11 = load i64, ptr %7, align 8, !tbaa !3
  %12 = load ptr, ptr %6, align 8, !tbaa !9
  store i64 %11, ptr %12, align 8, !tbaa !3
  %13 = load i64, ptr %8, align 8, !tbaa !3
  call void @llvm.lifetime.end.p0(i64 8, ptr %8) #10
  call void @llvm.lifetime.end.p0(i64 8, ptr %7) #10
  ret i64 %13
}

; Function Attrs: nounwind uwtable
define hidden ptr @mpd_sh_alloc(i64 noundef %0, i64 noundef %1, i64 noundef %2) #4 {
  %4 = alloca ptr, align 8
  %5 = alloca i64, align 8
  %6 = alloca i64, align 8
  %7 = alloca i64, align 8
  %8 = alloca i64, align 8
  %9 = alloca i64, align 8
  %10 = alloca i32, align 4
  store i64 %0, ptr %5, align 8, !tbaa !3
  store i64 %1, ptr %6, align 8, !tbaa !3
  store i64 %2, ptr %7, align 8, !tbaa !3
  call void @llvm.lifetime.start.p0(i64 8, ptr %8) #10
  call void @llvm.lifetime.start.p0(i64 8, ptr %9) #10
  %11 = load i64, ptr %6, align 8, !tbaa !3
  %12 = load i64, ptr %7, align 8, !tbaa !3
  %13 = call i64 @mul_size_t_overflow(i64 noundef %11, i64 noundef %12, ptr noundef %9)
  store i64 %13, ptr %8, align 8, !tbaa !3
  %14 = load i64, ptr %9, align 8, !tbaa !3
  %15 = icmp ne i64 %14, 0
  br i1 %15, label %16, label %17

16:                                               ; preds = %3
  store ptr null, ptr %4, align 8
  store i32 1, ptr %10, align 4
  br label %28

17:                                               ; preds = %3
  %18 = load i64, ptr %8, align 8, !tbaa !3
  %19 = load i64, ptr %5, align 8, !tbaa !3
  %20 = call i64 @add_size_t_overflow(i64 noundef %18, i64 noundef %19, ptr noundef %9)
  store i64 %20, ptr %8, align 8, !tbaa !3
  %21 = load i64, ptr %9, align 8, !tbaa !3
  %22 = icmp ne i64 %21, 0
  br i1 %22, label %23, label %24

23:                                               ; preds = %17
  store ptr null, ptr %4, align 8
  store i32 1, ptr %10, align 4
  br label %28

24:                                               ; preds = %17
  %25 = load ptr, ptr @mpd_mallocfunc, align 8, !tbaa !7
  %26 = load i64, ptr %8, align 8, !tbaa !3
  %27 = call ptr %25(i64 noundef %26)
  store ptr %27, ptr %4, align 8
  store i32 1, ptr %10, align 4
  br label %28

28:                                               ; preds = %24, %23, %16
  call void @llvm.lifetime.end.p0(i64 8, ptr %9) #10
  call void @llvm.lifetime.end.p0(i64 8, ptr %8) #10
  %29 = load ptr, ptr %4, align 8
  ret ptr %29
}