; Function Attrs: nounwind uwtable
define hidden ptr @mpd_sh_alloc(i64 noundef %0, i64 noundef %1, i64 noundef %2) local_unnamed_addr #4 {
  %umul = tail call { i64, i1 } @llvm.umul.with.overflow.i64(i64 %2, i64 %1)
  %4 = extractvalue { i64, i1 } %umul, 1
  br i1 %4, label %10, label %5

5:                                                ; preds = %3
  %umul.value = extractvalue { i64, i1 } %umul, 0
  %6 = add i64 %umul.value, %0
  %.not = icmp ult i64 %6, %umul.value
  br i1 %.not, label %10, label %7

7:                                                ; preds = %5
  %8 = load ptr, ptr @mpd_mallocfunc, align 8, !tbaa !3
  %9 = tail call ptr %8(i64 noundef %6) #9
  br label %10

10:                                               ; preds = %5, %3, %7
  %.0 = phi ptr [ %9, %7 ], [ null, %3 ], [ null, %5 ]
  ret ptr %.0
}